target datalayout = "e-m:e-p270:32:32-p271:32:32-p272:64:64-i64:64-i128:128-f80:128-n8:16:32:64-S128"
target triple = "x86_64-pc-linux-gnu"

%class.Draw = type { i8, ptr, ptr, ptr, ptr, ptr, ptr, ptr, ptr, %struct.b2DebugDraw, ptr, ptr, ptr, ptr }
%struct.b2DebugDraw = type { ptr, ptr, ptr, ptr, ptr, ptr, ptr, ptr, ptr, %struct.b2AABB, i8, i8, i8, i8, i8, i8, i8, i8, i8, i8, i8, i8, ptr }
%struct.b2AABB = type { %struct.b2Vec2, %struct.b2Vec2 }
%struct.b2Vec2 = type { float, float }
%struct.Camera = type { %struct.b2Vec2, float, i32, i32 }
%struct.GLBackground = type { i32, i32, i32, i32, i32, i32 }

@g_camera = dso_local global %struct.Camera zeroinitializer, align 4
@glad_glBindVertexArray = external global ptr, align 8
@glad_glBindBuffer = external global ptr, align 8
@glad_glUseProgram = external global ptr, align 8
@glad_glUniform1f = external global ptr, align 8
@glad_glDrawArrays = external global ptr, align 8
@glad_glUniform2f = external global ptr, align 8
@glad_glUniform3f = external global ptr, align 8

; Function Attrs: mustprogress uwtable
define linkonce_odr dso_local void @_ZN12GLBackground4DrawEv(ptr noundef nonnull align 4 dereferenceable(24) %0) #2 comdat align 2 {
  %2 = alloca ptr, align 8
  %3 = alloca float, align 4
  store ptr %0, ptr %2, align 8, !tbaa !86
  %4 = load ptr, ptr %2, align 8
  %5 = load ptr, ptr @glad_glUseProgram, align 8, !tbaa !29
  %6 = getelementptr inbounds nuw %struct.GLBackground, ptr %4, i32 0, i32 2
  %7 = load i32, ptr %6, align 4, !tbaa !87
  call void %5(i32 noundef %7)
  call void @llvm.lifetime.start.p0(i64 4, ptr %3) #1
  %8 = call double @glfwGetTime()
  %9 = fptrunc double %8 to float
  store float %9, ptr %3, align 4, !tbaa !18
  %10 = load float, ptr %3, align 4, !tbaa !18
  %11 = call float @fmodf(float noundef %10, float noundef 1.000000e+02) #1, !tbaa !26
  store float %11, ptr %3, align 4, !tbaa !18
  %12 = load ptr, ptr @glad_glUniform1f, align 8, !tbaa !29
  %13 = getelementptr inbounds nuw %struct.GLBackground, ptr %4, i32 0, i32 3
  %14 = load i32, ptr %13, align 4, !tbaa !89
  %15 = load float, ptr %3, align 4, !tbaa !18
  call void %12(i32 noundef %14, float noundef %15)
  %16 = load ptr, ptr @glad_glUniform2f, align 8, !tbaa !29
  %17 = getelementptr inbounds nuw %struct.GLBackground, ptr %4, i32 0, i32 4
  %18 = load i32, ptr %17, align 4, !tbaa !90
  %19 = load i32, ptr getelementptr inbounds nuw (%struct.Camera, ptr @g_camera, i32 0, i32 2), align 4, !tbaa !9
  %20 = sitofp i32 %19 to float
  %21 = load i32, ptr getelementptr inbounds nuw (%struct.Camera, ptr @g_camera, i32 0, i32 3), align 4, !tbaa !14
  %22 = sitofp i32 %21 to float
  call void %16(i32 noundef %18, float noundef %20, float noundef %22)
  %23 = load ptr, ptr @glad_glUniform3f, align 8, !tbaa !29
  %24 = getelementptr inbounds nuw %struct.GLBackground, ptr %4, i32 0, i32 5
  %25 = load i32, ptr %24, align 4, !tbaa !91
  call void %23(i32 noundef %25, float noundef 0x3FC99999A0000000, float noundef 0x3FC99999A0000000, float noundef 0x3FC99999A0000000)
  %26 = load ptr, ptr @glad_glBindVertexArray, align 8, !tbaa !29
  %27 = getelementptr inbounds nuw %struct.GLBackground, ptr %4, i32 0, i32 0
  %28 = load i32, ptr %27, align 4, !tbaa !92
  call void %26(i32 noundef %28)
  %29 = load ptr, ptr @glad_glBindBuffer, align 8, !tbaa !29
  %30 = getelementptr inbounds nuw %struct.GLBackground, ptr %4, i32 0, i32 1
  %31 = load i32, ptr %30, align 4, !tbaa !93
  call void %29(i32 noundef 34962, i32 noundef %31)
  %32 = load ptr, ptr @glad_glDrawArrays, align 8, !tbaa !29
  call void %32(i32 noundef 5, i32 noundef 0, i32 noundef 4)
  %33 = load ptr, ptr @glad_glBindBuffer, align 8, !tbaa !29
  call void %33(i32 noundef 34962, i32 noundef 0)
  %34 = load ptr, ptr @glad_glBindVertexArray, align 8, !tbaa !29
  call void %34(i32 noundef 0)
  %35 = load ptr, ptr @glad_glUseProgram, align 8, !tbaa !29
  call void %35(i32 noundef 0)
  call void @llvm.lifetime.end.p0(i64 4, ptr %3) #1
  ret void
}

; Function Attrs: mustprogress uwtable
define dso_local void @_ZN4Draw14DrawBackgroundEv(ptr noundef nonnull align 8 dereferenceable(216) %0) #2 align 2 {
  %2 = alloca ptr, align 8
  store ptr %0, ptr %2, align 8, !tbaa !30
  %3 = load ptr, ptr %2, align 8
  %4 = getelementptr inbounds nuw %class.Draw, ptr %3, i32 0, i32 1
  %5 = load ptr, ptr %4, align 8, !tbaa !64
  call void @_ZN12GLBackground4DrawEv(ptr noundef nonnull align 4 dereferenceable(24) %5)
  ret void
}