; Function Attrs: mustprogress uwtable
define dso_local void @_ZN4Draw14DrawBackgroundEv(ptr noundef nonnull readonly align 8 captures(none) dereferenceable(216) %0) local_unnamed_addr #8 align 2 {
  %2 = getelementptr inbounds nuw i8, ptr %0, i64 8
  %3 = load ptr, ptr %2, align 8, !tbaa !42
  %4 = load ptr, ptr @glad_glUseProgram, align 8, !tbaa !45
  %5 = getelementptr inbounds nuw i8, ptr %3, i64 8
  %6 = load i32, ptr %5, align 4, !tbaa !43
  tail call void %4(i32 noundef %6)
  %7 = tail call double @glfwGetTime()
  %8 = fptrunc double %7 to float
  %9 = tail call float @fmodf(float noundef %8, float noundef 1.000000e+02) #18, !tbaa !106
  %10 = load ptr, ptr @glad_glUniform1f, align 8, !tbaa !45
  %11 = getelementptr inbounds nuw i8, ptr %3, i64 12
  %12 = load i32, ptr %11, align 4, !tbaa !46
  tail call void %10(i32 noundef %12, float noundef %9)
  %13 = load ptr, ptr @glad_glUniform2f, align 8, !tbaa !45
  %14 = getelementptr inbounds nuw i8, ptr %3, i64 16
  %15 = load i32, ptr %14, align 4, !tbaa !47
  %16 = load i32, ptr getelementptr inbounds nuw (i8, ptr @g_camera, i64 12), align 4, !tbaa !4
  %17 = sitofp i32 %16 to float
  %18 = load i32, ptr getelementptr inbounds nuw (i8, ptr @g_camera, i64 16), align 8, !tbaa !11
  %19 = sitofp i32 %18 to float
  tail call void %13(i32 noundef %15, float noundef %17, float noundef %19)
  %20 = load ptr, ptr @glad_glUniform3f, align 8, !tbaa !45
  %21 = getelementptr inbounds nuw i8, ptr %3, i64 20
  %22 = load i32, ptr %21, align 4, !tbaa !48
  tail call void %20(i32 noundef %22, float noundef 0x3FC99999A0000000, float noundef 0x3FC99999A0000000, float noundef 0x3FC99999A0000000)
  %23 = load ptr, ptr @glad_glBindVertexArray, align 8, !tbaa !45
  %24 = load i32, ptr %3, align 4, !tbaa !49
  tail call void %23(i32 noundef %24)
  %25 = load ptr, ptr @glad_glBindBuffer, align 8, !tbaa !45
  %26 = getelementptr inbounds nuw i8, ptr %3, i64 4
  %27 = load i32, ptr %26, align 4, !tbaa !50
  tail call void %25(i32 noundef 34962, i32 noundef %27)
  %28 = load ptr, ptr @glad_glDrawArrays, align 8, !tbaa !45
  tail call void %28(i32 noundef 5, i32 noundef 0, i32 noundef 4)
  %29 = load ptr, ptr @glad_glBindBuffer, align 8, !tbaa !45
  tail call void %29(i32 noundef 34962, i32 noundef 0)
  %30 = load ptr, ptr @glad_glBindVertexArray, align 8, !tbaa !45
  tail call void %30(i32 noundef 0)
  %31 = load ptr, ptr @glad_glUseProgram, align 8, !tbaa !45
  tail call void %31(i32 noundef 0)
  ret void
}